target datalayout = "e-m:e-p270:32:32-p271:32:32-p272:64:64-i64:64-i128:128-f80:128-n8:16:32:64-S128"
target triple = "x86_64-pc-linux-gnu"

%"class.icu_77::Replaceable" = type { %"class.icu_77::UObject" }
%"class.icu_77::UObject" = type { ptr }
%"class.icu_77::UnicodeString" = type { %"class.icu_77::Replaceable", %"union.icu_77::UnicodeString::StackBufferOrFields" }
%"union.icu_77::UnicodeString::StackBufferOrFields" = type { %struct.anon.0, [32 x i8] }
%struct.anon.0 = type { i16, i32, i32, ptr }
%"class.icu_77::ConstChar16Ptr" = type { ptr }

; Function Attrs: inlinehint mustprogress nounwind uwtable
define linkonce_odr void @_ZN6icu_7714ConstChar16PtrD2Ev(ptr noundef nonnull align 8 dereferenceable(8) %0) unnamed_addr #2 comdat align 2 {
  %2 = alloca ptr, align 8
  store ptr %0, ptr %2, align 8, !tbaa !44
  %3 = load ptr, ptr %2, align 8
  %4 = getelementptr inbounds nuw %"class.icu_77::ConstChar16Ptr", ptr %3, i32 0, i32 0
  %5 = load ptr, ptr %4, align 8, !tbaa !46
  call void asm sideeffect "", "rm,~{memory},~{dirflag},~{fpsr},~{flags}"(ptr %5) #9, !srcloc !48
  ret void
}

; Function Attrs: inlinehint mustprogress nounwind uwtable
define linkonce_odr void @_ZN6icu_7714ConstChar16PtrC2EPKDs(ptr noundef nonnull align 8 dereferenceable(8) %0, ptr noundef %1) unnamed_addr #2 comdat align 2 {
  %3 = alloca ptr, align 8
  %4 = alloca ptr, align 8
  store ptr %0, ptr %3, align 8, !tbaa !44
  store ptr %1, ptr %4, align 8, !tbaa !33
  %5 = load ptr, ptr %3, align 8
  %6 = getelementptr inbounds nuw %"class.icu_77::ConstChar16Ptr", ptr %5, i32 0, i32 0
  %7 = load ptr, ptr %4, align 8, !tbaa !33
  store ptr %7, ptr %6, align 8, !tbaa !46
  ret void
}

; Function Attrs: inlinehint mustprogress nounwind uwtable
define internal noundef signext i8 @_ZL9U_FAILURE10UErrorCode(i32 noundef %0) #2 {
  %2 = alloca i32, align 4
  store i32 %0, ptr %2, align 4, !tbaa !40
  %3 = load i32, ptr %2, align 4, !tbaa !40
  %4 = icmp sgt i32 %3, 0
  %5 = zext i1 %4 to i8
  ret i8 %5
}

; Function Attrs: mustprogress uwtable
define void @utrans_setFilter_77(ptr noundef %0, ptr noundef %1, i32 noundef %2, ptr noundef %3) #1 personality ptr @__gxx_personality_v0 {
  %5 = alloca ptr, align 8
  %6 = alloca ptr, align 8
  %7 = alloca i32, align 4
  %8 = alloca ptr, align 8
  %9 = alloca ptr, align 8
  %10 = alloca %"class.icu_77::UnicodeString", align 8
  %11 = alloca %"class.icu_77::ConstChar16Ptr", align 8
  %12 = alloca ptr, align 8
  %13 = alloca i32, align 4
  %14 = alloca ptr, align 8
  %15 = alloca i1, align 1
  %16 = alloca i32, align 4
  store ptr %0, ptr %5, align 8, !tbaa !8
  store ptr %1, ptr %6, align 8, !tbaa !33
  store i32 %2, ptr %7, align 4, !tbaa !23
  store ptr %3, ptr %8, align 8, !tbaa !39
  %17 = load ptr, ptr %8, align 8, !tbaa !39
  %18 = icmp eq ptr %17, null
  br i1 %18, label %24, label %19

19:                                               ; preds = %4
  %20 = load ptr, ptr %8, align 8, !tbaa !39
  %21 = load i32, ptr %20, align 4, !tbaa !40
  %22 = call noundef signext i8 @_ZL9U_FAILURE10UErrorCode(i32 noundef %21)
  %23 = icmp ne i8 %22, 0
  br i1 %23, label %24, label %25

24:                                               ; preds = %19, %4
  br label %92

25:                                               ; preds = %19
  call void @llvm.lifetime.start.p0(i64 8, ptr %9) #9
  store ptr null, ptr %9, align 8, !tbaa !53
  %26 = load ptr, ptr %6, align 8, !tbaa !33
  %27 = icmp ne ptr %26, null
  br i1 %27, label %28, label %87

28:                                               ; preds = %25
  %29 = load ptr, ptr %6, align 8, !tbaa !33
  %30 = load i16, ptr %29, align 2, !tbaa !55
  %31 = zext i16 %30 to i32
  %32 = icmp ne i32 %31, 0
  br i1 %32, label %33, label %87

33:                                               ; preds = %28
  call void @llvm.lifetime.start.p0(i64 64, ptr %10) #9
  %34 = load i32, ptr %7, align 4, !tbaa !23
  %35 = icmp slt i32 %34, 0
  %36 = zext i1 %35 to i8
  %37 = load ptr, ptr %6, align 8, !tbaa !33
  call void @_ZN6icu_7714ConstChar16PtrC2EPKDs(ptr noundef nonnull align 8 dereferenceable(8) %11, ptr noundef %37)
  %38 = load i32, ptr %7, align 4, !tbaa !23
  invoke void @_ZN6icu_7713UnicodeStringC1EaNS_14ConstChar16PtrEi(ptr noundef nonnull align 8 dereferenceable(64) %10, i8 noundef signext %36, ptr noundef %11, i32 noundef %38)
          to label %39 unwind label %51

39:                                               ; preds = %33
  call void @_ZN6icu_7714ConstChar16PtrD2Ev(ptr noundef nonnull align 8 dereferenceable(8) %11) #9
  %40 = call noundef ptr @_ZN6icu_777UMemorynwEm(i64 noundef 200) #9
  %41 = icmp eq ptr %40, null
  store i1 false, ptr %15, align 1
  br i1 %41, label %45, label %42

42:                                               ; preds = %39
  store ptr %40, ptr %14, align 8
  store i1 true, ptr %15, align 1
  %43 = load ptr, ptr %8, align 8, !tbaa !39
  invoke void @_ZN6icu_7710UnicodeSetC1ERKNS_13UnicodeStringER10UErrorCode(ptr noundef nonnull align 8 dereferenceable(200) %40, ptr noundef nonnull align 8 dereferenceable(64) %10, ptr noundef nonnull align 4 dereferenceable(4) %43)
          to label %44 unwind label %55

44:                                               ; preds = %42
  br label %45

45:                                               ; preds = %44, %39
  %46 = phi ptr [ %40, %44 ], [ null, %39 ]
  store ptr %46, ptr %9, align 8, !tbaa !53
  %47 = load ptr, ptr %9, align 8, !tbaa !53
  %48 = icmp eq ptr %47, null
  br i1 %48, label %49, label %63

49:                                               ; preds = %45
  %50 = load ptr, ptr %8, align 8, !tbaa !39
  store i32 7, ptr %50, align 4, !tbaa !40
  store i32 1, ptr %16, align 4
  br label %82

51:                                               ; preds = %33
  %52 = landingpad { ptr, i32 }
          cleanup
  %53 = extractvalue { ptr, i32 } %52, 0
  store ptr %53, ptr %12, align 8
  %54 = extractvalue { ptr, i32 } %52, 1
  store i32 %54, ptr %13, align 4
  call void @_ZN6icu_7714ConstChar16PtrD2Ev(ptr noundef nonnull align 8 dereferenceable(8) %11) #9
  br label %86

55:                                               ; preds = %42
  %56 = landingpad { ptr, i32 }
          cleanup
  %57 = extractvalue { ptr, i32 } %56, 0
  store ptr %57, ptr %12, align 8
  %58 = extractvalue { ptr, i32 } %56, 1
  store i32 %58, ptr %13, align 4
  %59 = load i1, ptr %15, align 1
  br i1 %59, label %60, label %62

60:                                               ; preds = %55
  %61 = load ptr, ptr %14, align 8
  call void @_ZN6icu_777UMemorydlEPv(ptr noundef %61) #9
  br label %62

62:                                               ; preds = %60, %55
  br label %85

63:                                               ; preds = %45
  %64 = load ptr, ptr %8, align 8, !tbaa !39
  %65 = load i32, ptr %64, align 4, !tbaa !40
  %66 = invoke noundef signext i8 @_ZL9U_FAILURE10UErrorCode(i32 noundef %65)
          to label %67 unwind label %77

67:                                               ; preds = %63
  %68 = icmp ne i8 %66, 0
  br i1 %68, label %69, label %81

69:                                               ; preds = %67
  %70 = load ptr, ptr %9, align 8, !tbaa !53
  %71 = icmp eq ptr %70, null
  br i1 %71, label %76, label %72

72:                                               ; preds = %69
  %73 = load ptr, ptr %70, align 8, !tbaa !12
  %74 = getelementptr inbounds ptr, ptr %73, i64 1
  %75 = load ptr, ptr %74, align 8
  call void %75(ptr noundef nonnull align 8 dereferenceable(16) %70) #9
  br label %76

76:                                               ; preds = %72, %69
  store ptr null, ptr %9, align 8, !tbaa !53
  br label %81

77:                                               ; preds = %63
  %78 = landingpad { ptr, i32 }
          cleanup
  %79 = extractvalue { ptr, i32 } %78, 0
  store ptr %79, ptr %12, align 8
  %80 = extractvalue { ptr, i32 } %78, 1
  store i32 %80, ptr %13, align 4
  br label %85

81:                                               ; preds = %76, %67
  store i32 0, ptr %16, align 4
  br label %82

82:                                               ; preds = %81, %49
  call void @_ZN6icu_7713UnicodeStringD1Ev(ptr noundef nonnull align 8 dereferenceable(64) %10) #9
  call void @llvm.lifetime.end.p0(i64 64, ptr %10) #9
  %83 = load i32, ptr %16, align 4
  switch i32 %83, label %90 [
    i32 0, label %84
  ]

84:                                               ; preds = %82
  br label %87

85:                                               ; preds = %77, %62
  call void @_ZN6icu_7713UnicodeStringD1Ev(ptr noundef nonnull align 8 dereferenceable(64) %10) #9
  br label %86

86:                                               ; preds = %85, %51
  call void @llvm.lifetime.end.p0(i64 64, ptr %10) #9
  call void @llvm.lifetime.end.p0(i64 8, ptr %9) #9
  br label %93

87:                                               ; preds = %84, %28, %25
  %88 = load ptr, ptr %5, align 8, !tbaa !8
  %89 = load ptr, ptr %9, align 8, !tbaa !53
  call void @_ZN6icu_7714Transliterator11adoptFilterEPNS_13UnicodeFilterE(ptr noundef nonnull align 8 dereferenceable(84) %88, ptr noundef %89)
  store i32 0, ptr %16, align 4
  br label %90

90:                                               ; preds = %87, %82
  call void @llvm.lifetime.end.p0(i64 8, ptr %9) #9
  %91 = load i32, ptr %16, align 4
  switch i32 %91, label %98 [
    i32 0, label %92
    i32 1, label %92
  ]

92:                                               ; preds = %24, %90, %90
  ret void

93:                                               ; preds = %86
  %94 = load ptr, ptr %12, align 8
  %95 = load i32, ptr %13, align 4
  %96 = insertvalue { ptr, i32 } poison, ptr %94, 0
  %97 = insertvalue { ptr, i32 } %96, i32 %95, 1
  resume { ptr, i32 } %97

98:                                               ; preds = %90
  unreachable
}