; Function Attrs: mustprogress uwtable
define void @utrans_setFilter_77(ptr noundef %0, ptr noundef %1, i32 noundef %2, ptr noundef %3) local_unnamed_addr #4 personality ptr @__gxx_personality_v0 {
  %5 = alloca %"class.icu_77::UnicodeString", align 8
  %6 = alloca %"class.icu_77::ConstChar16Ptr", align 8
  %7 = icmp eq ptr %3, null
  br i1 %7, label %36, label %8

8:                                                ; preds = %4
  %9 = load i32, ptr %3, align 4, !tbaa !23
  %10 = icmp slt i32 %9, 1
  br i1 %10, label %11, label %36

11:                                               ; preds = %8
  %.not26 = icmp eq ptr %1, null
  br i1 %.not26, label %35, label %12

12:                                               ; preds = %11
  %13 = load i16, ptr %1, align 2, !tbaa !31
  %.not27 = icmp eq i16 %13, 0
  br i1 %.not27, label %35, label %14

14:                                               ; preds = %12
  call void @llvm.lifetime.start.p0(i64 64, ptr nonnull %5) #10
  %.lobit = lshr i32 %2, 31
  %15 = trunc nuw nsw i32 %.lobit to i8
  store ptr %1, ptr %6, align 8, !tbaa !25
  invoke void @_ZN6icu_7713UnicodeStringC1EaNS_14ConstChar16PtrEi(ptr noundef nonnull align 8 dereferenceable(64) %5, i8 noundef signext %15, ptr noundef nonnull %6, i32 noundef %2)
          to label %16 unwind label %21

16:                                               ; preds = %14
  %17 = load ptr, ptr %6, align 8, !tbaa !25
  call void asm sideeffect "", "rm,~{memory},~{dirflag},~{fpsr},~{flags}"(ptr %17) #10, !srcloc !28
  %18 = call noundef ptr @_ZN6icu_777UMemorynwEm(i64 noundef 200) #10
  %19 = icmp eq ptr %18, null
  br i1 %19, label %33, label %20

20:                                               ; preds = %16
  invoke void @_ZN6icu_7710UnicodeSetC1ERKNS_13UnicodeStringER10UErrorCode(ptr noundef nonnull align 8 dereferenceable(200) %18, ptr noundef nonnull align 8 dereferenceable(64) %5, ptr noundef nonnull align 4 dereferenceable(4) %3)
          to label %26 unwind label %24

21:                                               ; preds = %14
  %22 = landingpad { ptr, i32 }
          cleanup
  %23 = load ptr, ptr %6, align 8, !tbaa !25
  call void asm sideeffect "", "rm,~{memory},~{dirflag},~{fpsr},~{flags}"(ptr %23) #10, !srcloc !28
  br label %34

24:                                               ; preds = %20
  %25 = landingpad { ptr, i32 }
          cleanup
  call void @_ZN6icu_777UMemorydlEPv(ptr noundef nonnull %18) #10
  call void @_ZN6icu_7713UnicodeStringD1Ev(ptr noundef nonnull align 8 dereferenceable(64) %5) #10
  br label %34

26:                                               ; preds = %20
  %27 = load i32, ptr %3, align 4, !tbaa !23
  %28 = icmp slt i32 %27, 1
  br i1 %28, label %.thread34, label %29

29:                                               ; preds = %26
  %30 = load ptr, ptr %18, align 8, !tbaa !3
  %31 = getelementptr inbounds nuw i8, ptr %30, i64 8
  %32 = load ptr, ptr %31, align 8
  call void %32(ptr noundef nonnull align 8 dereferenceable(16) %18) #10
  br label %.thread34

.thread34:                                        ; preds = %29, %26
  %.1.ph = phi ptr [ %18, %26 ], [ null, %29 ]
  call void @_ZN6icu_7713UnicodeStringD1Ev(ptr noundef nonnull align 8 dereferenceable(64) %5) #10
  call void @llvm.lifetime.end.p0(i64 64, ptr nonnull %5) #10
  br label %35

33:                                               ; preds = %16
  store i32 7, ptr %3, align 4, !tbaa !23
  call void @_ZN6icu_7713UnicodeStringD1Ev(ptr noundef nonnull align 8 dereferenceable(64) %5) #10
  call void @llvm.lifetime.end.p0(i64 64, ptr nonnull %5) #10
  br label %36

34:                                               ; preds = %24, %21
  %.pn = phi { ptr, i32 } [ %25, %24 ], [ %22, %21 ]
  call void @llvm.lifetime.end.p0(i64 64, ptr nonnull %5) #10
  resume { ptr, i32 } %.pn

35:                                               ; preds = %.thread34, %12, %11
  %.018 = phi ptr [ null, %12 ], [ null, %11 ], [ %.1.ph, %.thread34 ]
  call void @_ZN6icu_7714Transliterator11adoptFilterEPNS_13UnicodeFilterE(ptr noundef nonnull align 8 dereferenceable(84) %0, ptr noundef %.018)
  br label %36

36:                                               ; preds = %33, %35, %4, %8
  ret void
}